; Function Attrs: nounwind uwtable
define noalias nonnull ptr @l_Lean_throwMaxRecDepthAt___at_Lean_Meta_Grind_Arith_Cutsat_DiseqCnstr_applySubsts___spec__1(ptr noundef %0, ptr noundef readnone captures(none) %1, ptr noundef readnone captures(none) %2, ptr noundef readnone captures(none) %3, ptr noundef readnone captures(none) %4, ptr noundef readnone captures(none) %5, ptr noundef readnone captures(none) %6, ptr noundef readnone captures(none) %7, ptr noundef readnone captures(none) %8, ptr noundef %9) local_unnamed_addr #1 {
  %11 = load ptr, ptr @l_Lean_throwMaxRecDepthAt___at_Lean_Meta_Grind_Arith_Cutsat_DiseqCnstr_applySubsts___spec__1___closed__6, align 8, !tbaa !9
  tail call void @lean_inc_heartbeat() #7
  %12 = tail call noalias ptr @mi_malloc_small(i64 noundef 24) #7
  %13 = icmp eq ptr %12, null
  br i1 %13, label %14, label %lean_alloc_ctor.exit

14:                                               ; preds = %10
  tail call void @lean_internal_panic_out_of_memory() #8
  unreachable

lean_alloc_ctor.exit:                             ; preds = %10
  %15 = getelementptr inbounds nuw i8, ptr %12, i64 4
  store i32 1, ptr %12, align 4, !tbaa !4
  store i32 131096, ptr %15, align 4
  %16 = getelementptr inbounds nuw i8, ptr %12, i64 8
  store ptr %0, ptr %16, align 8, !tbaa !9
  %17 = getelementptr inbounds nuw i8, ptr %12, i64 16
  store ptr %11, ptr %17, align 8, !tbaa !9
  tail call void @lean_inc_heartbeat() #7
  %18 = tail call noalias ptr @mi_malloc_small(i64 noundef 24) #7
  %19 = icmp eq ptr %18, null
  br i1 %19, label %20, label %lean_alloc_ctor.exit9

20:                                               ; preds = %lean_alloc_ctor.exit
  tail call void @lean_internal_panic_out_of_memory() #8
  unreachable

lean_alloc_ctor.exit9:                            ; preds = %lean_alloc_ctor.exit
  %21 = getelementptr inbounds nuw i8, ptr %18, i64 4
  store i32 1, ptr %18, align 4, !tbaa !4
  store i32 16908312, ptr %21, align 4
  %22 = getelementptr inbounds nuw i8, ptr %18, i64 8
  store ptr %12, ptr %22, align 8, !tbaa !9
  %23 = getelementptr inbounds nuw i8, ptr %18, i64 16
  store ptr %9, ptr %23, align 8, !tbaa !9
  ret ptr %18
}